; Function Attrs: mustprogress nofree norecurse nosync nounwind willreturn memory(write, argmem: readwrite, inaccessiblemem: none) uwtable
define void @ELdelete(ptr noundef captures(none) initializes((16, 24)) %0) local_unnamed_addr #5 {
  %2 = getelementptr inbounds nuw i8, ptr %0, i64 8
  %3 = load ptr, ptr %2, align 8, !tbaa !24
  %4 = load ptr, ptr %0, align 8, !tbaa !23
  %5 = getelementptr inbounds nuw i8, ptr %4, i64 8
  store ptr %3, ptr %5, align 8, !tbaa !24
  store ptr %4, ptr %3, align 8, !tbaa !23
  %6 = getelementptr inbounds nuw i8, ptr %0, i64 16
  store ptr inttoptr (i64 -2 to ptr), ptr %6, align 8, !tbaa !14
  ret void
}